; Function Attrs: null_pointer_is_valid sspstrong uwtable
define internal ptr @oid_to_repr(ptr noundef %0, ptr noundef readonly captures(none) %1, i32 %2, i32 %3) #0 {
  %5 = getelementptr inbounds nuw i8, ptr %1, i64 8
  %6 = load ptr, ptr %5, align 8
  %7 = tail call ptr @g_bytes_get_data(ptr noundef %6, ptr noundef null)
  %8 = load ptr, ptr %5, align 8
  %9 = tail call i64 @g_bytes_get_size(ptr noundef %8)
  %10 = trunc i64 %9 to i32
  %11 = tail call ptr @oid_encoded2string(ptr noundef %0, ptr noundef %7, i32 noundef %10)
  ret ptr %11
}